target datalayout = "e-m:e-p270:32:32-p271:32:32-p272:64:64-i64:64-i128:128-f80:128-n8:16:32:64-S128"
target triple = "x86_64-pc-linux-gnu"

%struct._http_conv_t = type { ptr, ptr, i32, i32, ptr, ptr, ptr, i16, %struct._address, ptr, i8, ptr, ptr }
%struct._address = type { i32, i32, ptr, ptr }

@proto_http = internal global i32 0, align 4

; Function Attrs: null_pointer_is_valid sspstrong uwtable
define internal ptr @get_http_conversation_data(ptr noundef %0, ptr noundef %1) #0 {
  %3 = alloca ptr, align 8
  %4 = alloca ptr, align 8
  %5 = alloca ptr, align 8
  store ptr %0, ptr %3, align 8
  store ptr %1, ptr %4, align 8
  call void @llvm.lifetime.start.p0(i64 8, ptr %5) #19
  %6 = load ptr, ptr %3, align 8
  %7 = call ptr @find_or_create_conversation(ptr noundef %6)
  %8 = load ptr, ptr %4, align 8
  store ptr %7, ptr %8, align 8
  %9 = load ptr, ptr %4, align 8
  %10 = load ptr, ptr %9, align 8
  %11 = load i32, ptr @proto_http, align 4
  %12 = call ptr @conversation_get_proto_data(ptr noundef %10, i32 noundef %11)
  store ptr %12, ptr %5, align 8
  %13 = load ptr, ptr %5, align 8
  %14 = icmp ne ptr %13, null
  br i1 %14, label %36, label %15

15:                                               ; preds = %2
  %16 = call ptr @wmem_file_scope()
  %17 = call noalias ptr @wmem_alloc0(ptr noundef %16, i64 noundef 112) #23
  store ptr %17, ptr %5, align 8
  %18 = call ptr @wmem_file_scope()
  %19 = call noalias ptr @wmem_map_new(ptr noundef %18, ptr noundef @g_direct_hash, ptr noundef @g_direct_equal)
  %20 = load ptr, ptr %5, align 8
  %21 = getelementptr inbounds nuw %struct._http_conv_t, ptr %20, i32 0, i32 0
  store ptr %19, ptr %21, align 8
  %22 = call ptr @wmem_file_scope()
  %23 = call noalias ptr @wmem_map_new(ptr noundef %22, ptr noundef @g_direct_hash, ptr noundef @g_direct_equal)
  %24 = load ptr, ptr %5, align 8
  %25 = getelementptr inbounds nuw %struct._http_conv_t, ptr %24, i32 0, i32 1
  store ptr %23, ptr %25, align 8
  %26 = load ptr, ptr %5, align 8
  %27 = getelementptr inbounds nuw %struct._http_conv_t, ptr %26, i32 0, i32 11
  store ptr null, ptr %27, align 8
  %28 = call ptr @wmem_file_scope()
  %29 = call noalias ptr @wmem_map_new(ptr noundef %28, ptr noundef @g_direct_hash, ptr noundef @g_direct_equal)
  %30 = load ptr, ptr %5, align 8
  %31 = getelementptr inbounds nuw %struct._http_conv_t, ptr %30, i32 0, i32 12
  store ptr %29, ptr %31, align 8
  %32 = load ptr, ptr %4, align 8
  %33 = load ptr, ptr %32, align 8
  %34 = load i32, ptr @proto_http, align 4
  %35 = load ptr, ptr %5, align 8
  call void @conversation_add_proto_data(ptr noundef %33, i32 noundef %34, ptr noundef %35)
  br label %36

36:                                               ; preds = %15, %2
  %37 = load ptr, ptr %5, align 8
  call void @llvm.lifetime.end.p0(i64 8, ptr %5) #19
  ret ptr %37
}