; Function Attrs: null_pointer_is_valid sspstrong uwtable
define internal fastcc ptr @get_http_conversation_data(ptr noundef %0, ptr noundef captures(none) initializes((0, 8)) %1) unnamed_addr #0 {
  %3 = tail call ptr @find_or_create_conversation(ptr noundef %0)
  store ptr %3, ptr %1, align 8
  %4 = load i32, ptr @proto_http, align 4
  %5 = tail call ptr @conversation_get_proto_data(ptr noundef %3, i32 noundef %4)
  %.not = icmp eq ptr %5, null
  br i1 %.not, label %6, label %20

6:                                                ; preds = %2
  %7 = tail call ptr @wmem_file_scope()
  %8 = tail call noalias dereferenceable_or_null(112) ptr @wmem_alloc0(ptr noundef %7, i64 noundef 112) #25
  %9 = tail call ptr @wmem_file_scope()
  %10 = tail call noalias ptr @wmem_map_new(ptr noundef %9, ptr noundef nonnull @g_direct_hash, ptr noundef nonnull @g_direct_equal)
  store ptr %10, ptr %8, align 8
  %11 = tail call ptr @wmem_file_scope()
  %12 = tail call noalias ptr @wmem_map_new(ptr noundef %11, ptr noundef nonnull @g_direct_hash, ptr noundef nonnull @g_direct_equal)
  %13 = getelementptr inbounds nuw i8, ptr %8, i64 8
  store ptr %12, ptr %13, align 8
  %14 = getelementptr inbounds nuw i8, ptr %8, i64 96
  store ptr null, ptr %14, align 8
  %15 = tail call ptr @wmem_file_scope()
  %16 = tail call noalias ptr @wmem_map_new(ptr noundef %15, ptr noundef nonnull @g_direct_hash, ptr noundef nonnull @g_direct_equal)
  %17 = getelementptr inbounds nuw i8, ptr %8, i64 104
  store ptr %16, ptr %17, align 8
  %18 = load ptr, ptr %1, align 8
  %19 = load i32, ptr @proto_http, align 4
  tail call void @conversation_add_proto_data(ptr noundef %18, i32 noundef %19, ptr noundef %8)
  br label %20

20:                                               ; preds = %6, %2
  %.0 = phi ptr [ %5, %2 ], [ %8, %6 ]
  ret ptr %.0
}